libcolumbus0.so.2 libcolumbus0 #MINVER#
 _ZN8Columbus11ErrorMatrix3setEmmi@Base 0.3.0
 _ZN8Columbus11ErrorMatrixC1Emmii@Base 0.3.0
 _ZN8Columbus11ErrorMatrixC2Emmii@Base 0.3.0
 _ZN8Columbus11ErrorMatrixD1Ev@Base 0.3.0
 _ZN8Columbus11ErrorMatrixD2Ev@Base 0.3.0
 _ZN8Columbus11ErrorValues11clearErrorsEv@Base 0.3.0
 _ZN8Columbus11ErrorValues11setPadErrorEtPKcii@Base 0.3.0
 _ZN8Columbus11ErrorValues13setGroupErrorERKNS_4WordEi@Base 0.3.0
 _ZN8Columbus11ErrorValues15addLatinAccentsEv@Base 0.3.0
 _ZN8Columbus11ErrorValues16setSubstringModeEv@Base 0.3.0
 _ZN8Columbus11ErrorValues17addKeyboardErrorsEv@Base 0.3.0
 _ZN8Columbus11ErrorValues18addGroupErrorToLUTERKNS_4WordEi@Base 0.3.0
 _ZN8Columbus11ErrorValues18addNumberpadErrorsEv@Base 0.3.0
 _ZN8Columbus11ErrorValues8addToLUTEtti@Base 0.3.0
 _ZN8Columbus11ErrorValues8clearLUTEv@Base 0.3.0
 _ZN8Columbus11ErrorValues8setErrorEtti@Base 0.3.0
 _ZN8Columbus11ErrorValues9isInGroupEt@Base 0.3.0
 _ZN8Columbus11ErrorValuesC1Ev@Base 0.3.0
 _ZN8Columbus11ErrorValuesC2Ev@Base 0.3.0
 _ZN8Columbus11ErrorValuesD1Ev@Base 0.3.0
 _ZN8Columbus11ErrorValuesD2Ev@Base 0.3.0
 _ZN8Columbus12IndexMatches4sortEv@Base 0.3.0
 _ZN8Columbus12IndexMatches5clearEv@Base 0.3.0
 _ZN8Columbus12IndexMatches8addMatchERKNS_4WordEmi@Base 0.3.0
 _ZN8Columbus12IndexMatchesC1Ev@Base 0.3.0
 _ZN8Columbus12IndexMatchesC2Ev@Base 0.3.0
 _ZN8Columbus12IndexMatchesD1Ev@Base 0.3.0
 _ZN8Columbus12IndexMatchesD2Ev@Base 0.3.0
 _ZN8Columbus12IndexWeights9setWeightERKNS_4WordEd@Base 0.3.0
 _ZN8Columbus12IndexWeightsC1Ev@Base 0.3.0
 _ZN8Columbus12IndexWeightsC2Ev@Base 0.3.0
 _ZN8Columbus12IndexWeightsD1Ev@Base 0.3.0
 _ZN8Columbus12IndexWeightsD2Ev@Base 0.3.0
 _ZN8Columbus12MatchResults10addResultsERKS0_@Base 0.3.0
 _ZN8Columbus12MatchResults10copyResultERKS0_m@Base 0.3.0
 _ZN8Columbus12MatchResults9addResultEmd@Base 0.3.0
 _ZN8Columbus12MatchResultsC1Ev@Base 0.3.0
 _ZN8Columbus12MatchResultsC2Ev@Base 0.3.0
 _ZN8Columbus12MatchResultsD1Ev@Base 0.3.0
 _ZN8Columbus12MatchResultsD2Ev@Base 0.3.0
 _ZN8Columbus12ResultFilter10addNewTermEv@Base 0.3.0
 _ZN8Columbus12ResultFilter13addNewSubTermERKNS_4WordES3_@Base 0.3.0
 _ZN8Columbus12ResultFilterC1Ev@Base 0.3.0
 _ZN8Columbus12ResultFilterC2Ev@Base 0.3.0
 _ZN8Columbus12ResultFilterD1Ev@Base 0.3.0
 _ZN8Columbus12ResultFilterD2Ev@Base 0.3.0
 _ZN8Columbus12findDataFileESs@Base 0.3.0
 _ZN8Columbus12isWhitespaceEt@Base 0.3.0
 _ZN8Columbus12splitToWordsEPKcRNS_8WordListE@Base 0.3.0
 _ZN8Columbus14hiresTimestampEv@Base 0.3.0
 _ZN8Columbus14internalToUtf8EPKtjPcj@Base 0.3.0
 _ZN8Columbus14utf8ToInternalEPKcRj@Base 0.3.0
 _ZN8Columbus16LevenshteinIndex10insertWordERKNS_4WordEm@Base 0.3.0
 _ZN8Columbus16LevenshteinIndex10trieInsertEPNS_8TrieNodeERKNS_4WordEm@Base 0.3.0
 _ZN8Columbus16LevenshteinIndex15getDefaultErrorEv@Base 0.3.0
 _ZN8Columbus16LevenshteinIndexC1Ev@Base 0.3.0
 _ZN8Columbus16LevenshteinIndexC2Ev@Base 0.3.0
 _ZN8Columbus16LevenshteinIndexD1Ev@Base 0.3.0
 _ZN8Columbus16LevenshteinIndexD2Ev@Base 0.3.0
 _ZN8Columbus16gather_all_nodesEPNS_8TrieNodeERSt6vectorIS1_SaIS1_EE@Base 0.3.0
 _ZN8Columbus17MatcherStatistics13wordProcessedEm@Base 0.3.0
 _ZN8Columbus17MatcherStatistics16addedWordToIndexEmRKNS_4WordE@Base 0.3.0
 _ZN8Columbus17MatcherStatisticsC1Ev@Base 0.3.0
 _ZN8Columbus17MatcherStatisticsC2Ev@Base 0.3.0
 _ZN8Columbus17MatcherStatisticsD1Ev@Base 0.3.0
 _ZN8Columbus17MatcherStatisticsD2Ev@Base 0.3.0
 _ZN8Columbus4Word13convertStringEPKc@Base 0.3.0
 _ZN8Columbus4Word13duplicateFromERKS0_@Base 0.3.0
 _ZN8Columbus4Word13hasWhitespaceEv@Base 0.3.0
 _ZN8Columbus4WordC1EOS0_@Base 0.3.0
 _ZN8Columbus4WordC1EPKc@Base 0.3.0
 _ZN8Columbus4WordC1ERKS0_@Base 0.3.0
 _ZN8Columbus4WordC1Ev@Base 0.3.0
 _ZN8Columbus4WordC2EOS0_@Base 0.3.0
 _ZN8Columbus4WordC2EPKc@Base 0.3.0
 _ZN8Columbus4WordC2ERKS0_@Base 0.3.0
 _ZN8Columbus4WordC2Ev@Base 0.3.0
 _ZN8Columbus4WordD1Ev@Base 0.3.0
 _ZN8Columbus4WordD2Ev@Base 0.3.0
 _ZN8Columbus4WordaSEOS0_@Base 0.3.0
 _ZN8Columbus4WordaSEPKc@Base 0.3.0
 _ZN8Columbus4WordaSERKS0_@Base 0.3.0
 _ZN8Columbus5splitEPKcRNS_8WordListEPKti@Base 0.3.0
 _ZN8Columbus6Corpus11addDocumentERKNS_8DocumentE@Base 0.3.0
 _ZN8Columbus6CorpusC1Ev@Base 0.3.0
 _ZN8Columbus6CorpusC2Ev@Base 0.3.0
 _ZN8Columbus6CorpusD1Ev@Base 0.3.0
 _ZN8Columbus6CorpusD2Ev@Base 0.3.0
 _ZN8Columbus7Matcher10addToIndexERKNS_4WordEmm@Base 0.3.0
 _ZN8Columbus7Matcher12buildIndexesERKNS_6CorpusE@Base 0.3.0
 _ZN8Columbus7Matcher14getErrorValuesEv@Base 0.3.0
 _ZN8Columbus7Matcher15getIndexWeightsEv@Base 0.3.0
 _ZN8Columbus7Matcher17addToReverseIndexEmmPKNS_8DocumentE@Base 0.3.0
 _ZN8Columbus7Matcher18matchWithRelevancyERKNS_8WordListEbiRNS_12MatchResultsE@Base 0.3.0
 _ZN8Columbus7Matcher5indexERKNS_6CorpusE@Base 0.3.0
 _ZN8Columbus7Matcher5matchEPKcRNS_12MatchResultsE@Base 0.3.0
 _ZN8Columbus7Matcher5matchEPKcRNS_12MatchResultsERKNS_12ResultFilterE@Base 0.3.0
 _ZN8Columbus7Matcher5matchERKNS_8WordListERNS_12MatchResultsE@Base 0.3.0
 _ZN8Columbus7MatcherC1Ev@Base 0.3.0
 _ZN8Columbus7MatcherC2Ev@Base 0.3.0
 _ZN8Columbus7MatcherD1Ev@Base 0.3.0
 _ZN8Columbus7MatcherD2Ev@Base 0.3.0
 _ZN8Columbus8Document7addTextERKNS_4WordEPKc@Base 0.3.0
 _ZN8Columbus8Document7addTextERKNS_4WordERKNS_8WordListE@Base 0.3.0
 _ZN8Columbus8DocumentC1ERKS0_@Base 0.3.0
 _ZN8Columbus8DocumentC1Em@Base 0.3.0
 _ZN8Columbus8DocumentC2ERKS0_@Base 0.3.0
 _ZN8Columbus8DocumentC2Em@Base 0.3.0
 _ZN8Columbus8DocumentD1Ev@Base 0.3.0
 _ZN8Columbus8DocumentD2Ev@Base 0.3.0
 _ZN8Columbus8DocumentaSERKS0_@Base 0.3.0
 _ZN8Columbus8WordList7addWordERKNS_4WordE@Base 0.3.0
 _ZN8Columbus8WordListC1ERKS0_@Base 0.3.0
 _ZN8Columbus8WordListC1Ev@Base 0.3.0
 _ZN8Columbus8WordListC2ERKS0_@Base 0.3.0
 _ZN8Columbus8WordListC2Ev@Base 0.3.0
 _ZN8Columbus8WordListD1Ev@Base 0.3.0
 _ZN8Columbus8WordListD2Ev@Base 0.3.0
 _ZN8Columbus8WordListaSERKS0_@Base 0.3.0
 _ZN8Columbus9MatchDataD1Ev@Base 0.3.0
 _ZN8Columbus9MatchDataD2Ev@Base 0.3.0
 _ZN8Columbus9WordStore5getIDERKNS_4WordE@Base 0.3.0
 _ZN8Columbus9WordStoreC1Ev@Base 0.3.0
 _ZN8Columbus9WordStoreC2Ev@Base 0.3.0
 _ZN8Columbus9WordStoreD1Ev@Base 0.3.0
 _ZN8Columbus9WordStoreD2Ev@Base 0.3.0
 _ZNK8Columbus11ErrorMatrix10totalErrorEm@Base 0.3.0
 _ZNK8Columbus11ErrorMatrix8minErrorEm@Base 0.3.0
 _ZNK8Columbus11ErrorValues18getSubstituteErrorEtt@Base 0.3.0
 _ZNK8Columbus11ErrorValues22getSubstituteErrorSlowEtt@Base 0.3.0
 _ZNK8Columbus12IndexMatches13getMatchErrorEm@Base 0.3.0
 _ZNK8Columbus12IndexMatches4sizeEv@Base 0.3.0
 _ZNK8Columbus12IndexMatches8getMatchEm@Base 0.3.0
 _ZNK8Columbus12IndexMatches8getQueryEm@Base 0.3.0
 _ZNK8Columbus12IndexWeights9getWeightERKNS_4WordE@Base 0.3.0
 _ZNK8Columbus12MatchResults12getRelevancyEm@Base 0.3.0
 _ZNK8Columbus12MatchResults13getDocumentIDEm@Base 0.3.0
 _ZNK8Columbus12MatchResults14sortIfRequiredEv@Base 0.3.0
 _ZNK8Columbus12MatchResults4sizeEv@Base 0.3.0
 _ZNK8Columbus12ResultFilter11numSubTermsEm@Base 0.3.0
 _ZNK8Columbus12ResultFilter7getWordEmm@Base 0.3.0
 _ZNK8Columbus12ResultFilter8getFieldEmm@Base 0.3.0
 _ZNK8Columbus12ResultFilter8numTermsEv@Base 0.3.0
 _ZNK8Columbus16LevenshteinIndex15searchRecursiveERKNS_4WordEPNS_8TrieNodeERKNS_11ErrorValuesEttmRNS_11ErrorMatrixERNS_12IndexMatchesEi@Base 0.3.0
 _ZNK8Columbus16LevenshteinIndex16findOptimalErrorEttRKNS_4WordEmmRKNS_11ErrorMatrixERKNS_11ErrorValuesE@Base 0.3.0
 _ZNK8Columbus16LevenshteinIndex7hasWordERKNS_4WordE@Base 0.3.0
 _ZNK8Columbus16LevenshteinIndex8maxCountEv@Base 0.3.0
 _ZNK8Columbus16LevenshteinIndex8numNodesEv@Base 0.3.0
 _ZNK8Columbus16LevenshteinIndex8numWordsEv@Base 0.3.0
 _ZNK8Columbus16LevenshteinIndex9findWordsERKNS_4WordERKNS_11ErrorValuesEiRNS_12IndexMatchesE@Base 0.3.0
 _ZNK8Columbus16LevenshteinIndex9wordCountEm@Base 0.3.0
 _ZNK8Columbus17MatcherStatistics17getTotalWordCountEm@Base 0.3.0
 _ZNK8Columbus4Word4joinERKS0_@Base 0.3.0
 _ZNK8Columbus4Word6asUtf8Ev@Base 0.3.0
 _ZNK8Columbus4Word6toUtf8EPcj@Base 0.3.0
 _ZNK8Columbus4WordeqEPKc@Base 0.3.0
 _ZNK8Columbus4WordeqERKS0_@Base 0.3.0
 _ZNK8Columbus4WordixEj@Base 0.3.0
 _ZNK8Columbus4WordltERKS0_@Base 0.3.0
 _ZNK8Columbus4WordneEPKc@Base 0.3.0
 _ZNK8Columbus4WordneERKS0_@Base 0.3.0
 _ZNK8Columbus6Corpus11getDocumentEm@Base 0.3.0
 _ZNK8Columbus6Corpus4sizeEv@Base 0.3.0
 _ZNK8Columbus8Document10fieldCountEv@Base 0.3.0
 _ZNK8Columbus8Document13getFieldNamesERNS_8WordListE@Base 0.3.0
 _ZNK8Columbus8Document14totalWordCountERKNS_4WordE@Base 0.3.0
 _ZNK8Columbus8Document5getIDEv@Base 0.3.0
 _ZNK8Columbus8Document7getTextERKNS_4WordE@Base 0.3.0
 _ZNK8Columbus8Document9wordCountERKNS_4WordES1_@Base 0.3.0
 _ZNK8Columbus8WordList4sizeEv@Base 0.3.0
 _ZNK8Columbus8WordListeqERKS0_@Base 0.3.0
 _ZNK8Columbus8WordListixEm@Base 0.3.0
 _ZNK8Columbus8WordListneERKS0_@Base 0.3.0
 _ZNK8Columbus9WordStore7getWordEm@Base 0.3.0
 _ZNK8Columbus9WordStore7hasWordEm@Base 0.3.0
 _ZNSt12_Destroy_auxILb0EE9__destroyIPN8Columbus4WordEEEvT_S5_@Base 0.3.0
 _ZNSt12_Destroy_auxILb0EE9__destroyIPSt4pairIN8Columbus4WordES4_EEEvT_S7_@Base 0.3.0
 _ZNSt4pairIN8Columbus4WordES1_ED1Ev@Base 0.3.0
 _ZNSt4pairIN8Columbus4WordES1_ED2Ev@Base 0.3.0
 _ZNSt6vectorIN8Columbus4WordESaIS1_EE19_M_emplace_back_auxIIRKS1_EEEvDpOT_@Base 0.3.0
 _ZNSt6vectorIN8Columbus4WordESaIS1_EE19_M_emplace_back_auxIJRKS1_EEEvDpOT_@Base 0.3.0
 _ZNSt6vectorIN8Columbus4WordESaIS1_EEaSERKS3_@Base 0.3.0
 _ZNSt6vectorIN8Columbus8DocumentESaIS1_EE19_M_emplace_back_auxIIRKS1_EEEvDpOT_@Base 0.3.0
 _ZNSt6vectorIN8Columbus8DocumentESaIS1_EE19_M_emplace_back_auxIJRKS1_EEEvDpOT_@Base 0.3.0
 _ZNSt6vectorIN8Columbus9MatchDataESaIS1_EE19_M_emplace_back_auxIIRKS1_EEEvDpOT_@Base 0.3.0
 _ZNSt6vectorIN8Columbus9MatchDataESaIS1_EE19_M_emplace_back_auxIJRKS1_EEEvDpOT_@Base 0.3.0
 _ZNSt6vectorIPN8Columbus8TrieNodeESaIS2_EE19_M_emplace_back_auxIIRKS2_EEEvDpOT_@Base 0.3.0
 _ZNSt6vectorIPN8Columbus8TrieNodeESaIS2_EE19_M_emplace_back_auxIJRKS2_EEEvDpOT_@Base 0.3.0
 _ZNSt6vectorIS_ISt4pairIN8Columbus4WordES2_ESaIS3_EESaIS5_EE19_M_emplace_back_auxIIRKS5_EEEvDpOT_@Base 0.3.0
 _ZNSt6vectorIS_ISt4pairIN8Columbus4WordES2_ESaIS3_EESaIS5_EE19_M_emplace_back_auxIJRKS5_EEEvDpOT_@Base 0.3.0
 _ZNSt6vectorISt4pairIN8Columbus4WordES2_ESaIS3_EE19_M_emplace_back_auxIIS3_EEEvDpOT_@Base 0.3.0
 _ZNSt6vectorISt4pairIN8Columbus4WordES2_ESaIS3_EE19_M_emplace_back_auxIJS3_EEEvDpOT_@Base 0.3.0
 _ZNSt6vectorISt4pairIN8Columbus4WordES2_ESaIS3_EED1Ev@Base 0.3.0
 _ZNSt6vectorISt4pairIN8Columbus4WordES2_ESaIS3_EED2Ev@Base 0.3.0
 _ZNSt6vectorISt4pairIdmESaIS1_EE15_M_range_insertIN9__gnu_cxx17__normal_iteratorIPS1_S3_EEEEvS8_T_S9_St20forward_iterator_tag@Base 0.3.0
 _ZNSt6vectorISt4pairIdmESaIS1_EE19_M_emplace_back_auxIIRKS1_EEEvDpOT_@Base 0.3.0
 _ZNSt6vectorISt4pairIdmESaIS1_EE19_M_emplace_back_auxIJRKS1_EEEvDpOT_@Base 0.3.0
 _ZNSt6vectorISt4pairItPN8Columbus8TrieNodeEESaIS4_EE19_M_emplace_back_auxIIRKS4_EEEvDpOT_@Base 0.3.0
 _ZNSt6vectorISt4pairItPN8Columbus8TrieNodeEESaIS4_EE19_M_emplace_back_auxIJRKS4_EEEvDpOT_@Base 0.3.0
 _ZNSt6vectorIjSaIjEE19_M_emplace_back_auxIIjEEEvDpOT_@Base 0.3.0
 _ZNSt6vectorIjSaIjEE19_M_emplace_back_auxIJjEEEvDpOT_@Base 0.3.0
 _ZNSt8_Rb_treeIN8Columbus4WordESt4pairIKS1_NS0_8WordListEESt10_Select1stIS5_ESt4lessIS1_ESaIS5_EE10_M_insert_IS5_EESt17_Rb_tree_iteratorIS5_EPKSt18_Rb_tree_node_baseSH_OT_@Base 0.3.0
 _ZNSt8_Rb_treeIN8Columbus4WordESt4pairIKS1_NS0_8WordListEESt10_Select1stIS5_ESt4lessIS1_ESaIS5_EE16_M_insert_uniqueIS5_EES2_ISt17_Rb_tree_iteratorIS5_EbEOT_@Base 0.3.0
 _ZNSt8_Rb_treeIN8Columbus4WordESt4pairIKS1_NS0_8WordListEESt10_Select1stIS5_ESt4lessIS1_ESaIS5_EE17_M_insert_unique_IS5_EESt17_Rb_tree_iteratorIS5_ESt23_Rb_tree_const_iteratorIS5_EOT_@Base 0.3.0
 _ZNSt8_Rb_treeIN8Columbus4WordESt4pairIKS1_NS0_8WordListEESt10_Select1stIS5_ESt4lessIS1_ESaIS5_EE4findERS3_@Base 0.3.0
 _ZNSt8_Rb_treeIN8Columbus4WordESt4pairIKS1_NS0_8WordListEESt10_Select1stIS5_ESt4lessIS1_ESaIS5_EE7_M_copyEPKSt13_Rb_tree_nodeIS5_EPSD_@Base 0.3.0
 _ZNSt8_Rb_treeIN8Columbus4WordESt4pairIKS1_NS0_8WordListEESt10_Select1stIS5_ESt4lessIS1_ESaIS5_EE8_M_eraseEPSt13_Rb_tree_nodeIS5_E@Base 0.3.0
 _ZNSt8_Rb_treeIN8Columbus4WordESt4pairIKS1_NS0_8WordListEESt10_Select1stIS5_ESt4lessIS1_ESaIS5_EEaSERKSB_@Base 0.3.0
 _ZNSt8_Rb_treeIN8Columbus4WordESt4pairIKS1_dESt10_Select1stIS4_ESt4lessIS1_ESaIS4_EE10_M_insert_IS4_EESt17_Rb_tree_iteratorIS4_EPKSt18_Rb_tree_node_baseSG_OT_@Base 0.3.0
 _ZNSt8_Rb_treeIN8Columbus4WordESt4pairIKS1_dESt10_Select1stIS4_ESt4lessIS1_ESaIS4_EE16_M_insert_uniqueIS4_EES2_ISt17_Rb_tree_iteratorIS4_EbEOT_@Base 0.3.0
 _ZNSt8_Rb_treeIN8Columbus4WordESt4pairIKS1_dESt10_Select1stIS4_ESt4lessIS1_ESaIS4_EE17_M_insert_unique_IS4_EESt17_Rb_tree_iteratorIS4_ESt23_Rb_tree_const_iteratorIS4_EOT_@Base 0.3.0
 _ZNSt8_Rb_treeIN8Columbus4WordESt4pairIKS1_dESt10_Select1stIS4_ESt4lessIS1_ESaIS4_EE8_M_eraseEPSt13_Rb_tree_nodeIS4_E@Base 0.3.0
 _ZNSt8_Rb_treeIN8Columbus4WordESt4pairIKS1_mESt10_Select1stIS4_ESt4lessIS1_ESaIS4_EE10_M_insert_IS4_EESt17_Rb_tree_iteratorIS4_EPKSt18_Rb_tree_node_baseSG_OT_@Base 0.3.0
 _ZNSt8_Rb_treeIN8Columbus4WordESt4pairIKS1_mESt10_Select1stIS4_ESt4lessIS1_ESaIS4_EE16_M_insert_uniqueIS4_EES2_ISt17_Rb_tree_iteratorIS4_EbEOT_@Base 0.3.0
 _ZNSt8_Rb_treeIN8Columbus4WordESt4pairIKS1_mESt10_Select1stIS4_ESt4lessIS1_ESaIS4_EE17_M_insert_unique_IS4_EESt17_Rb_tree_iteratorIS4_ESt23_Rb_tree_const_iteratorIS4_EOT_@Base 0.3.0
 _ZNSt8_Rb_treeIN8Columbus4WordESt4pairIKS1_mESt10_Select1stIS4_ESt4lessIS1_ESaIS4_EE8_M_eraseEPSt13_Rb_tree_nodeIS4_E@Base 0.3.0
 _ZNSt8_Rb_treeISt4pairIttES0_IKS1_iESt10_Select1stIS3_ESt4lessIS1_ESaIS3_EE10_M_insert_IS3_EESt17_Rb_tree_iteratorIS3_EPKSt18_Rb_tree_node_baseSF_OT_@Base 0.3.0
 _ZNSt8_Rb_treeISt4pairIttES0_IKS1_iESt10_Select1stIS3_ESt4lessIS1_ESaIS3_EE16_M_insert_uniqueIS3_EES0_ISt17_Rb_tree_iteratorIS3_EbEOT_@Base 0.3.0
 _ZNSt8_Rb_treeISt4pairIttES0_IKS1_iESt10_Select1stIS3_ESt4lessIS1_ESaIS3_EE17_M_insert_unique_IS3_EESt17_Rb_tree_iteratorIS3_ESt23_Rb_tree_const_iteratorIS3_EOT_@Base 0.3.0
 _ZNSt8_Rb_treeISt4pairIttES0_IKS1_iESt10_Select1stIS3_ESt4lessIS1_ESaIS3_EE8_M_eraseEPSt13_Rb_tree_nodeIS3_E@Base 0.3.0
 _ZNSt8_Rb_treeImSt4pairIKmPN8Columbus16LevenshteinIndexEESt10_Select1stIS5_ESt4lessImESaIS5_EE10_M_insert_IS5_EESt17_Rb_tree_iteratorIS5_EPKSt18_Rb_tree_node_baseSH_OT_@Base 0.3.0
 _ZNSt8_Rb_treeImSt4pairIKmPN8Columbus16LevenshteinIndexEESt10_Select1stIS5_ESt4lessImESaIS5_EE16_M_insert_uniqueIS5_EES0_ISt17_Rb_tree_iteratorIS5_EbEOT_@Base 0.3.0
 _ZNSt8_Rb_treeImSt4pairIKmPN8Columbus16LevenshteinIndexEESt10_Select1stIS5_ESt4lessImESaIS5_EE17_M_insert_unique_IS5_EESt17_Rb_tree_iteratorIS5_ESt23_Rb_tree_const_iteratorIS5_EOT_@Base 0.3.0
 _ZNSt8_Rb_treeImSt4pairIKmPN8Columbus16LevenshteinIndexEESt10_Select1stIS5_ESt4lessImESaIS5_EE8_M_eraseEPSt13_Rb_tree_nodeIS5_E@Base 0.3.0
 _ZNSt8_Rb_treeImSt4pairIKmSt3mapImSt3setImSt4lessImESaImEES5_SaIS0_IS1_S7_EEEESt10_Select1stISB_ES5_SaISB_EE10_M_insert_ISB_EESt17_Rb_tree_iteratorISB_EPKSt18_Rb_tree_node_baseSL_OT_@Base 0.3.0
 _ZNSt8_Rb_treeImSt4pairIKmSt3mapImSt3setImSt4lessImESaImEES5_SaIS0_IS1_S7_EEEESt10_Select1stISB_ES5_SaISB_EE16_M_insert_uniqueISB_EES0_ISt17_Rb_tree_iteratorISB_EbEOT_@Base 0.3.0
 _ZNSt8_Rb_treeImSt4pairIKmSt3mapImSt3setImSt4lessImESaImEES5_SaIS0_IS1_S7_EEEESt10_Select1stISB_ES5_SaISB_EE17_M_insert_unique_ISB_EESt17_Rb_tree_iteratorISB_ESt23_Rb_tree_const_iteratorISB_EOT_@Base 0.3.0
 _ZNSt8_Rb_treeImSt4pairIKmSt3mapImSt3setImSt4lessImESaImEES5_SaIS0_IS1_S7_EEEESt10_Select1stISB_ES5_SaISB_EE4findERS1_@Base 0.3.0
 _ZNSt8_Rb_treeImSt4pairIKmSt3mapImSt3setImSt4lessImESaImEES5_SaIS0_IS1_S7_EEEESt10_Select1stISB_ES5_SaISB_EE8_M_eraseEPSt13_Rb_tree_nodeISB_E@Base 0.3.0
 _ZNSt8_Rb_treeImSt4pairIKmSt3mapImiSt4lessImESaIS0_IS1_iEEEESt10_Select1stIS8_ES4_SaIS8_EE10_M_insert_IS8_EESt17_Rb_tree_iteratorIS8_EPKSt18_Rb_tree_node_baseSI_OT_@Base 0.3.0
 _ZNSt8_Rb_treeImSt4pairIKmSt3mapImiSt4lessImESaIS0_IS1_iEEEESt10_Select1stIS8_ES4_SaIS8_EE16_M_insert_uniqueIS8_EES0_ISt17_Rb_tree_iteratorIS8_EbEOT_@Base 0.3.0
 _ZNSt8_Rb_treeImSt4pairIKmSt3mapImiSt4lessImESaIS0_IS1_iEEEESt10_Select1stIS8_ES4_SaIS8_EE17_M_insert_unique_IS8_EESt17_Rb_tree_iteratorIS8_ESt23_Rb_tree_const_iteratorIS8_EOT_@Base 0.3.0
 _ZNSt8_Rb_treeImSt4pairIKmSt3mapImiSt4lessImESaIS0_IS1_iEEEESt10_Select1stIS8_ES4_SaIS8_EE4findERS1_@Base 0.3.0
 _ZNSt8_Rb_treeImSt4pairIKmSt3mapImiSt4lessImESaIS0_IS1_iEEEESt10_Select1stIS8_ES4_SaIS8_EE8_M_eraseEPSt13_Rb_tree_nodeIS8_E@Base 0.3.0
 _ZNSt8_Rb_treeImSt4pairIKmSt3setImSt4lessImESaImEEESt10_Select1stIS7_ES4_SaIS7_EE10_M_insert_IS7_EESt17_Rb_tree_iteratorIS7_EPKSt18_Rb_tree_node_baseSH_OT_@Base 0.3.0
 _ZNSt8_Rb_treeImSt4pairIKmSt3setImSt4lessImESaImEEESt10_Select1stIS7_ES4_SaIS7_EE16_M_insert_uniqueIS7_EES0_ISt17_Rb_tree_iteratorIS7_EbEOT_@Base 0.3.0
 _ZNSt8_Rb_treeImSt4pairIKmSt3setImSt4lessImESaImEEESt10_Select1stIS7_ES4_SaIS7_EE17_M_insert_unique_IS7_EESt17_Rb_tree_iteratorIS7_ESt23_Rb_tree_const_iteratorIS7_EOT_@Base 0.3.0
 _ZNSt8_Rb_treeImSt4pairIKmSt3setImSt4lessImESaImEEESt10_Select1stIS7_ES4_SaIS7_EE4findERS1_@Base 0.3.0
 _ZNSt8_Rb_treeImSt4pairIKmSt3setImSt4lessImESaImEEESt10_Select1stIS7_ES4_SaIS7_EE7_M_copyEPKSt13_Rb_tree_nodeIS7_EPSD_@Base 0.3.0
 _ZNSt8_Rb_treeImSt4pairIKmSt3setImSt4lessImESaImEEESt10_Select1stIS7_ES4_SaIS7_EE8_M_eraseEPSt13_Rb_tree_nodeIS7_E@Base 0.3.0
 _ZNSt8_Rb_treeImSt4pairIKmSt3setImSt4lessImESaImEEESt10_Select1stIS7_ES4_SaIS7_EEC1EOSB_@Base 0.3.0
 _ZNSt8_Rb_treeImSt4pairIKmSt3setImSt4lessImESaImEEESt10_Select1stIS7_ES4_SaIS7_EEC2EOSB_@Base 0.3.0
 _ZNSt8_Rb_treeImSt4pairIKmdESt10_Select1stIS2_ESt4lessImESaIS2_EE10_M_insert_IS2_EESt17_Rb_tree_iteratorIS2_EPKSt18_Rb_tree_node_baseSE_OT_@Base 0.3.0
 _ZNSt8_Rb_treeImSt4pairIKmdESt10_Select1stIS2_ESt4lessImESaIS2_EE16_M_insert_uniqueIS2_EES0_ISt17_Rb_tree_iteratorIS2_EbEOT_@Base 0.3.0
 _ZNSt8_Rb_treeImSt4pairIKmdESt10_Select1stIS2_ESt4lessImESaIS2_EE17_M_insert_unique_IS2_EESt17_Rb_tree_iteratorIS2_ESt23_Rb_tree_const_iteratorIS2_EOT_@Base 0.3.0
 _ZNSt8_Rb_treeImSt4pairIKmdESt10_Select1stIS2_ESt4lessImESaIS2_EE8_M_eraseEPSt13_Rb_tree_nodeIS2_E@Base 0.3.0
 _ZNSt8_Rb_treeImSt4pairIKmiESt10_Select1stIS2_ESt4lessImESaIS2_EE10_M_insert_IS2_EESt17_Rb_tree_iteratorIS2_EPKSt18_Rb_tree_node_baseSE_OT_@Base 0.3.0
 _ZNSt8_Rb_treeImSt4pairIKmiESt10_Select1stIS2_ESt4lessImESaIS2_EE16_M_insert_uniqueIS2_EES0_ISt17_Rb_tree_iteratorIS2_EbEOT_@Base 0.3.0
 _ZNSt8_Rb_treeImSt4pairIKmiESt10_Select1stIS2_ESt4lessImESaIS2_EE17_M_insert_unique_IS2_EESt17_Rb_tree_iteratorIS2_ESt23_Rb_tree_const_iteratorIS2_EOT_@Base 0.3.0
 _ZNSt8_Rb_treeImSt4pairIKmiESt10_Select1stIS2_ESt4lessImESaIS2_EE7_M_copyEPKSt13_Rb_tree_nodeIS2_EPSA_@Base 0.3.0
 _ZNSt8_Rb_treeImSt4pairIKmiESt10_Select1stIS2_ESt4lessImESaIS2_EE8_M_eraseEPSt13_Rb_tree_nodeIS2_E@Base 0.3.0
 _ZNSt8_Rb_treeImSt4pairIKmiESt10_Select1stIS2_ESt4lessImESaIS2_EEC1EOS8_@Base 0.3.0
 _ZNSt8_Rb_treeImSt4pairIKmiESt10_Select1stIS2_ESt4lessImESaIS2_EEC2EOS8_@Base 0.3.0
 _ZNSt8_Rb_treeImSt4pairIKmmESt10_Select1stIS2_ESt4lessImESaIS2_EE10_M_insert_IS2_EESt17_Rb_tree_iteratorIS2_EPKSt18_Rb_tree_node_baseSE_OT_@Base 0.3.0
 _ZNSt8_Rb_treeImSt4pairIKmmESt10_Select1stIS2_ESt4lessImESaIS2_EE16_M_insert_uniqueIS2_EES0_ISt17_Rb_tree_iteratorIS2_EbEOT_@Base 0.3.0
 _ZNSt8_Rb_treeImSt4pairIKmmESt10_Select1stIS2_ESt4lessImESaIS2_EE17_M_insert_unique_IS2_EESt17_Rb_tree_iteratorIS2_ESt23_Rb_tree_const_iteratorIS2_EOT_@Base 0.3.0
 _ZNSt8_Rb_treeImSt4pairIKmmESt10_Select1stIS2_ESt4lessImESaIS2_EE4findERS1_@Base 0.3.0
 _ZNSt8_Rb_treeImSt4pairIKmmESt10_Select1stIS2_ESt4lessImESaIS2_EE8_M_eraseEPSt13_Rb_tree_nodeIS2_E@Base 0.3.0
 _ZNSt8_Rb_treeImmSt9_IdentityImESt4lessImESaImEE10_M_insert_IRKmEESt17_Rb_tree_iteratorImEPKSt18_Rb_tree_node_baseSD_OT_@Base 0.3.0
 _ZNSt8_Rb_treeImmSt9_IdentityImESt4lessImESaImEE10_M_insert_ImEESt17_Rb_tree_iteratorImEPKSt18_Rb_tree_node_baseSB_OT_@Base 0.3.0
 _ZNSt8_Rb_treeImmSt9_IdentityImESt4lessImESaImEE7_M_copyEPKSt13_Rb_tree_nodeImEPS7_@Base 0.3.0
 _ZNSt8_Rb_treeImmSt9_IdentityImESt4lessImESaImEE8_M_eraseEPSt13_Rb_tree_nodeImE@Base 0.3.0
 _ZNSt8_Rb_treeImmSt9_IdentityImESt4lessImESaImEEC1EOS5_@Base 0.3.0
 _ZNSt8_Rb_treeImmSt9_IdentityImESt4lessImESaImEEC2EOS5_@Base 0.3.0
 _ZNSt8_Rb_treeItSt4pairIKtmESt10_Select1stIS2_ESt4lessItESaIS2_EE10_M_insert_IS2_EESt17_Rb_tree_iteratorIS2_EPKSt18_Rb_tree_node_baseSE_OT_@Base 0.3.0
 _ZNSt8_Rb_treeItSt4pairIKtmESt10_Select1stIS2_ESt4lessItESaIS2_EE16_M_insert_uniqueIS2_EES0_ISt17_Rb_tree_iteratorIS2_EbEOT_@Base 0.3.0
 _ZNSt8_Rb_treeItSt4pairIKtmESt10_Select1stIS2_ESt4lessItESaIS2_EE17_M_insert_unique_IS2_EESt17_Rb_tree_iteratorIS2_ESt23_Rb_tree_const_iteratorIS2_EOT_@Base 0.3.0
 _ZNSt8_Rb_treeItSt4pairIKtmESt10_Select1stIS2_ESt4lessItESaIS2_EE4findERS1_@Base 0.3.0
 _ZNSt8_Rb_treeItSt4pairIKtmESt10_Select1stIS2_ESt4lessItESaIS2_EE8_M_eraseEPSt13_Rb_tree_nodeIS2_E@Base 0.3.0
 _ZSt13__adjust_heapIN9__gnu_cxx17__normal_iteratorIPN8Columbus9MatchDataESt6vectorIS3_SaIS3_EEEElS3_EvT_T0_SA_T1_@Base 0.3.0
 _ZSt13__adjust_heapISt16reverse_iteratorIN9__gnu_cxx17__normal_iteratorIPSt4pairIdmESt6vectorIS4_SaIS4_EEEEElS4_EvT_T0_SC_T1_@Base 0.3.0
 _ZSt13__heap_selectIN9__gnu_cxx17__normal_iteratorIPN8Columbus9MatchDataESt6vectorIS3_SaIS3_EEEEEvT_S9_S9_@Base 0.3.0
 _ZSt13__heap_selectISt16reverse_iteratorIN9__gnu_cxx17__normal_iteratorIPSt4pairIdmESt6vectorIS4_SaIS4_EEEEEEvT_SB_SB_@Base 0.3.0
 _ZSt16__insertion_sortIN9__gnu_cxx17__normal_iteratorIPN8Columbus9MatchDataESt6vectorIS3_SaIS3_EEEEEvT_S9_@Base 0.3.0
 _ZSt16__insertion_sortISt16reverse_iteratorIN9__gnu_cxx17__normal_iteratorIPSt4pairIdmESt6vectorIS4_SaIS4_EEEEEEvT_SB_@Base 0.3.0
 _ZSt16__introsort_loopIN9__gnu_cxx17__normal_iteratorIPN8Columbus9MatchDataESt6vectorIS3_SaIS3_EEEElEvT_S9_T0_@Base 0.3.0
 _ZSt16__introsort_loopISt16reverse_iteratorIN9__gnu_cxx17__normal_iteratorIPSt4pairIdmESt6vectorIS4_SaIS4_EEEEElEvT_SB_T0_@Base 0.3.0
 _ZSt19__move_median_firstISt16reverse_iteratorIN9__gnu_cxx17__normal_iteratorIPSt4pairIdmESt6vectorIS4_SaIS4_EEEEEEvT_SB_SB_@Base 0.3.0
 _ZSt25__unguarded_linear_insertIN9__gnu_cxx17__normal_iteratorIPN8Columbus9MatchDataESt6vectorIS3_SaIS3_EEEEEvT_@Base 0.3.0
 _ZSt25__unguarded_linear_insertISt16reverse_iteratorIN9__gnu_cxx17__normal_iteratorIPSt4pairIdmESt6vectorIS4_SaIS4_EEEEEEvT_@Base 0.3.0
 _ZSt9make_heapIN9__gnu_cxx17__normal_iteratorIPN8Columbus9MatchDataESt6vectorIS3_SaIS3_EEEEEvT_S9_@Base 0.3.0
 _ZSt9sort_heapIN9__gnu_cxx17__normal_iteratorIPN8Columbus9MatchDataESt6vectorIS3_SaIS3_EEEEEvT_S9_@Base 0.3.0
 col_corpus_add_document@Base 0.3.0
 col_corpus_delete@Base 0.3.0
 col_corpus_new@Base 0.3.0
 col_document_add_text@Base 0.3.0
 col_document_delete@Base 0.3.0
 col_document_get_id@Base 0.3.0
 col_document_new@Base 0.3.0
 col_error_values_add_standard_errors@Base 0.3.0
 col_error_values_set_substring_mode@Base 0.3.0
 col_index_weights_get_weight@Base 0.3.0
 col_index_weights_set_weight@Base 0.3.0
 col_match_results_delete@Base 0.3.0
 col_match_results_get_id@Base 0.3.0
 col_match_results_get_relevancy@Base 0.3.0
 col_match_results_new@Base 0.3.0
 col_match_results_size@Base 0.3.0
 col_matcher_delete@Base 0.3.0
 col_matcher_get_error_values@Base 0.3.0
 col_matcher_get_index_weights@Base 0.3.0
 col_matcher_index@Base 0.3.0
 col_matcher_match@Base 0.3.0
 col_matcher_new@Base 0.3.0
 col_word_as_utf8@Base 0.3.0
 col_word_delete@Base 0.3.0
 col_word_length@Base 0.3.0
 col_word_new@Base 0.3.0
